target datalayout = "e-m:e-p270:32:32-p271:32:32-p272:64:64-i64:64-i128:128-f80:128-n8:16:32:64-S128"
target triple = "x86_64-pc-linux-gnu"

%"struct.faiss::IndexIVFIndependentQuantizer" = type <{ %"struct.faiss::Index.base", [4 x i8], ptr, ptr, ptr, i8, [7 x i8] }>
%"struct.faiss::Index.base" = type <{ ptr, i32, [4 x i8], i64, i8, i8, [2 x i8], i32, float }>

; Function Attrs: mustprogress nounwind uwtable
define void @_ZN5faiss28IndexIVFIndependentQuantizerD2Ev(ptr noundef nonnull align 8 dereferenceable(65) %0) unnamed_addr #0 align 2 {
  %2 = alloca ptr, align 8
  store ptr %0, ptr %2, align 8
  %3 = load ptr, ptr %2, align 8
  store ptr getelementptr inbounds ({ [24 x ptr] }, ptr @_ZTVN5faiss28IndexIVFIndependentQuantizerE, i32 0, i32 0, i32 2), ptr %3, align 8
  %4 = getelementptr inbounds %"struct.faiss::IndexIVFIndependentQuantizer", ptr %3, i32 0, i32 5
  %5 = load i8, ptr %4, align 8
  %6 = trunc i8 %5 to i1
  br i1 %6, label %7, label %32

7:                                                ; preds = %1
  %8 = getelementptr inbounds %"struct.faiss::IndexIVFIndependentQuantizer", ptr %3, i32 0, i32 2
  %9 = load ptr, ptr %8, align 8
  %10 = icmp eq ptr %9, null
  br i1 %10, label %15, label %11

11:                                               ; preds = %7
  %12 = load ptr, ptr %9, align 8
  %13 = getelementptr inbounds ptr, ptr %12, i64 1
  %14 = load ptr, ptr %13, align 8
  call void %14(ptr noundef nonnull align 8 dereferenceable(36) %9) #9
  br label %15

15:                                               ; preds = %11, %7
  %16 = getelementptr inbounds %"struct.faiss::IndexIVFIndependentQuantizer", ptr %3, i32 0, i32 4
  %17 = load ptr, ptr %16, align 8
  %18 = icmp eq ptr %17, null
  br i1 %18, label %23, label %19

19:                                               ; preds = %15
  %20 = load ptr, ptr %17, align 8
  %21 = getelementptr inbounds ptr, ptr %20, i64 1
  %22 = load ptr, ptr %21, align 8
  call void %22(ptr noundef nonnull align 8 dereferenceable(257) %17) #9
  br label %23

23:                                               ; preds = %19, %15
  %24 = getelementptr inbounds %"struct.faiss::IndexIVFIndependentQuantizer", ptr %3, i32 0, i32 3
  %25 = load ptr, ptr %24, align 8
  %26 = icmp eq ptr %25, null
  br i1 %26, label %31, label %27

27:                                               ; preds = %23
  %28 = load ptr, ptr %25, align 8
  %29 = getelementptr inbounds ptr, ptr %28, i64 5
  %30 = load ptr, ptr %29, align 8
  call void %30(ptr noundef nonnull align 8 dereferenceable(17) %25) #9
  br label %31

31:                                               ; preds = %27, %23
  br label %32

32:                                               ; preds = %31, %1
  call void @_ZN5faiss5IndexD2Ev(ptr noundef nonnull align 8 dereferenceable(36) %3) #9
  ret void
}