; Function Attrs: mustprogress nounwind uwtable
define void @_ZN5faiss28IndexIVFIndependentQuantizerD2Ev(ptr noundef nonnull align 8 dereferenceable(65) %0) unnamed_addr #0 align 2 {
  store ptr getelementptr inbounds ({ [24 x ptr] }, ptr @_ZTVN5faiss28IndexIVFIndependentQuantizerE, i64 0, i32 0, i64 2), ptr %0, align 8
  %2 = getelementptr inbounds i8, ptr %0, i64 64
  %3 = load i8, ptr %2, align 8
  %4 = and i8 %3, 1
  %.not = icmp eq i8 %4, 0
  br i1 %.not, label %29, label %5

5:                                                ; preds = %1
  %6 = getelementptr inbounds i8, ptr %0, i64 40
  %7 = load ptr, ptr %6, align 8
  %8 = icmp eq ptr %7, null
  br i1 %8, label %13, label %9

9:                                                ; preds = %5
  %10 = load ptr, ptr %7, align 8
  %11 = getelementptr inbounds i8, ptr %10, i64 8
  %12 = load ptr, ptr %11, align 8
  tail call void %12(ptr noundef nonnull align 8 dereferenceable(36) %7) #11
  br label %13

13:                                               ; preds = %9, %5
  %14 = getelementptr inbounds i8, ptr %0, i64 56
  %15 = load ptr, ptr %14, align 8
  %16 = icmp eq ptr %15, null
  br i1 %16, label %21, label %17

17:                                               ; preds = %13
  %18 = load ptr, ptr %15, align 8
  %19 = getelementptr inbounds i8, ptr %18, i64 8
  %20 = load ptr, ptr %19, align 8
  tail call void %20(ptr noundef nonnull align 8 dereferenceable(257) %15) #11
  br label %21

21:                                               ; preds = %17, %13
  %22 = getelementptr inbounds i8, ptr %0, i64 48
  %23 = load ptr, ptr %22, align 8
  %24 = icmp eq ptr %23, null
  br i1 %24, label %29, label %25

25:                                               ; preds = %21
  %26 = load ptr, ptr %23, align 8
  %27 = getelementptr inbounds i8, ptr %26, i64 40
  %28 = load ptr, ptr %27, align 8
  tail call void %28(ptr noundef nonnull align 8 dereferenceable(17) %23) #11
  br label %29

29:                                               ; preds = %21, %25, %1
  tail call void @_ZN5faiss5IndexD2Ev(ptr noundef nonnull align 8 dereferenceable(36) %0) #11
  ret void
}